target datalayout = "e-m:e-p270:32:32-p271:32:32-p272:64:64-i64:64-i128:128-f80:128-n8:16:32:64-S128"
target triple = "x86_64-pc-linux-gnu"

%"class.cv::hfloat" = type { i16 }

; Function Attrs: mustprogress nounwind uwtable
define internal void @_ZN2cvL6LUT8u_INS_6hfloatEEEvPKhPKT_PS4_iii(ptr noundef %0, ptr noundef %1, ptr noundef %2, i32 noundef %3, i32 noundef %4, i32 noundef %5) #4 {
  %7 = alloca ptr, align 8
  %8 = alloca ptr, align 8
  %9 = alloca ptr, align 8
  %10 = alloca i32, align 4
  %11 = alloca i32, align 4
  %12 = alloca i32, align 4
  %13 = alloca i32, align 4
  %14 = alloca i32, align 4
  %15 = alloca i32, align 4
  %16 = alloca i32, align 4
  store ptr %0, ptr %7, align 8, !tbaa !39
  store ptr %1, ptr %8, align 8, !tbaa !90
  store ptr %2, ptr %9, align 8, !tbaa !90
  store i32 %3, ptr %10, align 4, !tbaa !10
  store i32 %4, ptr %11, align 4, !tbaa !10
  store i32 %5, ptr %12, align 4, !tbaa !10
  %17 = load i32, ptr %12, align 4, !tbaa !10
  %18 = icmp eq i32 %17, 1
  br i1 %18, label %19, label %44

19:                                               ; preds = %6
  call void @llvm.lifetime.start.p0(i64 4, ptr %13) #13
  store i32 0, ptr %13, align 4, !tbaa !10
  br label %20

20:                                               ; preds = %40, %19
  %21 = load i32, ptr %13, align 4, !tbaa !10
  %22 = load i32, ptr %10, align 4, !tbaa !10
  %23 = load i32, ptr %11, align 4, !tbaa !10
  %24 = mul nsw i32 %22, %23
  %25 = icmp slt i32 %21, %24
  br i1 %25, label %27, label %26

26:                                               ; preds = %20
  call void @llvm.lifetime.end.p0(i64 4, ptr %13) #13
  br label %43

27:                                               ; preds = %20
  %28 = load ptr, ptr %8, align 8, !tbaa !90
  %29 = load ptr, ptr %7, align 8, !tbaa !39
  %30 = load i32, ptr %13, align 4, !tbaa !10
  %31 = sext i32 %30 to i64
  %32 = getelementptr inbounds i8, ptr %29, i64 %31
  %33 = load i8, ptr %32, align 1, !tbaa !92
  %34 = zext i8 %33 to i64
  %35 = getelementptr inbounds nuw %"class.cv::hfloat", ptr %28, i64 %34
  %36 = load ptr, ptr %9, align 8, !tbaa !90
  %37 = load i32, ptr %13, align 4, !tbaa !10
  %38 = sext i32 %37 to i64
  %39 = getelementptr inbounds %"class.cv::hfloat", ptr %36, i64 %38
  call void @llvm.memcpy.p0.p0.i64(ptr align 2 %39, ptr align 2 %35, i64 2, i1 false), !tbaa.struct !120
  br label %40

40:                                               ; preds = %27
  %41 = load i32, ptr %13, align 4, !tbaa !10
  %42 = add nsw i32 %41, 1
  store i32 %42, ptr %13, align 4, !tbaa !10
  br label %20, !llvm.loop !121

43:                                               ; preds = %26
  br label %89

44:                                               ; preds = %6
  call void @llvm.lifetime.start.p0(i64 4, ptr %14) #13
  store i32 0, ptr %14, align 4, !tbaa !10
  br label %45

45:                                               ; preds = %84, %44
  %46 = load i32, ptr %14, align 4, !tbaa !10
  %47 = load i32, ptr %10, align 4, !tbaa !10
  %48 = load i32, ptr %11, align 4, !tbaa !10
  %49 = mul nsw i32 %47, %48
  %50 = icmp slt i32 %46, %49
  br i1 %50, label %52, label %51

51:                                               ; preds = %45
  store i32 5, ptr %15, align 4
  call void @llvm.lifetime.end.p0(i64 4, ptr %14) #13
  br label %88

52:                                               ; preds = %45
  call void @llvm.lifetime.start.p0(i64 4, ptr %16) #13
  store i32 0, ptr %16, align 4, !tbaa !10
  br label %53

53:                                               ; preds = %80, %52
  %54 = load i32, ptr %16, align 4, !tbaa !10
  %55 = load i32, ptr %11, align 4, !tbaa !10
  %56 = icmp slt i32 %54, %55
  br i1 %56, label %58, label %57

57:                                               ; preds = %53
  store i32 8, ptr %15, align 4
  call void @llvm.lifetime.end.p0(i64 4, ptr %16) #13
  br label %83

58:                                               ; preds = %53
  %59 = load ptr, ptr %8, align 8, !tbaa !90
  %60 = load ptr, ptr %7, align 8, !tbaa !39
  %61 = load i32, ptr %14, align 4, !tbaa !10
  %62 = load i32, ptr %16, align 4, !tbaa !10
  %63 = add nsw i32 %61, %62
  %64 = sext i32 %63 to i64
  %65 = getelementptr inbounds i8, ptr %60, i64 %64
  %66 = load i8, ptr %65, align 1, !tbaa !92
  %67 = zext i8 %66 to i32
  %68 = load i32, ptr %11, align 4, !tbaa !10
  %69 = mul nsw i32 %67, %68
  %70 = load i32, ptr %16, align 4, !tbaa !10
  %71 = add nsw i32 %69, %70
  %72 = sext i32 %71 to i64
  %73 = getelementptr inbounds %"class.cv::hfloat", ptr %59, i64 %72
  %74 = load ptr, ptr %9, align 8, !tbaa !90
  %75 = load i32, ptr %14, align 4, !tbaa !10
  %76 = load i32, ptr %16, align 4, !tbaa !10
  %77 = add nsw i32 %75, %76
  %78 = sext i32 %77 to i64
  %79 = getelementptr inbounds %"class.cv::hfloat", ptr %74, i64 %78
  call void @llvm.memcpy.p0.p0.i64(ptr align 2 %79, ptr align 2 %73, i64 2, i1 false), !tbaa.struct !120
  br label %80

80:                                               ; preds = %58
  %81 = load i32, ptr %16, align 4, !tbaa !10
  %82 = add nsw i32 %81, 1
  store i32 %82, ptr %16, align 4, !tbaa !10
  br label %53, !llvm.loop !122

83:                                               ; preds = %57
  br label %84

84:                                               ; preds = %83
  %85 = load i32, ptr %11, align 4, !tbaa !10
  %86 = load i32, ptr %14, align 4, !tbaa !10
  %87 = add nsw i32 %86, %85
  store i32 %87, ptr %14, align 4, !tbaa !10
  br label %45, !llvm.loop !123

88:                                               ; preds = %51
  br label %89

89:                                               ; preds = %88, %43
  ret void
}

; Function Attrs: mustprogress uwtable
define internal void @_ZN2cvL9LUT8u_16fEPKhPKNS_6hfloatEPS2_iii(ptr noundef %0, ptr noundef %1, ptr noundef %2, i32 noundef %3, i32 noundef %4, i32 noundef %5) #0 {
  %7 = alloca ptr, align 8
  %8 = alloca ptr, align 8
  %9 = alloca ptr, align 8
  %10 = alloca i32, align 4
  %11 = alloca i32, align 4
  %12 = alloca i32, align 4
  store ptr %0, ptr %7, align 8, !tbaa !39
  store ptr %1, ptr %8, align 8, !tbaa !90
  store ptr %2, ptr %9, align 8, !tbaa !90
  store i32 %3, ptr %10, align 4, !tbaa !10
  store i32 %4, ptr %11, align 4, !tbaa !10
  store i32 %5, ptr %12, align 4, !tbaa !10
  %13 = load ptr, ptr %7, align 8, !tbaa !39
  %14 = load ptr, ptr %8, align 8, !tbaa !90
  %15 = load ptr, ptr %9, align 8, !tbaa !90
  %16 = load i32, ptr %10, align 4, !tbaa !10
  %17 = load i32, ptr %11, align 4, !tbaa !10
  %18 = load i32, ptr %12, align 4, !tbaa !10
  call void @_ZN2cvL6LUT8u_INS_6hfloatEEEvPKhPKT_PS4_iii(ptr noundef %13, ptr noundef %14, ptr noundef %15, i32 noundef %16, i32 noundef %17, i32 noundef %18)
  ret void
}