; Function Attrs: mustprogress nofree norecurse nosync nounwind memory(argmem: readwrite) uwtable
define internal void @_ZN2cvL9LUT8u_16fEPKhPKNS_6hfloatEPS2_iii(ptr noundef readonly captures(none) %0, ptr noundef readonly captures(none) %1, ptr noundef writeonly captures(none) %2, i32 noundef %3, i32 noundef %4, i32 noundef %5) #8 {
  %7 = icmp eq i32 %5, 1
  %8 = mul nsw i32 %4, %3
  %9 = icmp sgt i32 %8, 0
  br i1 %7, label %.preheader.i, label %.preheader30.i

.preheader30.i:                                   ; preds = %6
  %10 = icmp sgt i32 %4, 0
  %or.cond.i = and i1 %10, %9
  br i1 %or.cond.i, label %.preheader29.us.preheader.i, label %_ZN2cvL6LUT8u_INS_6hfloatEEEvPKhPKT_PS4_iii.exit

.preheader29.us.preheader.i:                      ; preds = %.preheader30.i
  %11 = zext nneg i32 %4 to i64
  br label %.preheader29.us.i

.preheader29.us.i:                                ; preds = %._crit_edge.us.i, %.preheader29.us.preheader.i
  %indvars.iv38.i = phi i64 [ 0, %.preheader29.us.preheader.i ], [ %indvars.iv.next39.i, %._crit_edge.us.i ]
  br label %12

12:                                               ; preds = %12, %.preheader29.us.i
  %indvars.iv.i = phi i64 [ 0, %.preheader29.us.i ], [ %indvars.iv.next.i, %12 ]
  %13 = add nuw nsw i64 %indvars.iv.i, %indvars.iv38.i
  %14 = getelementptr inbounds nuw i8, ptr %0, i64 %13
  %15 = load i8, ptr %14, align 1, !tbaa !76
  %16 = zext i8 %15 to i32
  %17 = mul nuw nsw i32 %4, %16
  %18 = zext nneg i32 %17 to i64
  %19 = getelementptr inbounds nuw %"class.cv::hfloat", ptr %1, i64 %indvars.iv.i
  %20 = getelementptr inbounds nuw %"class.cv::hfloat", ptr %19, i64 %18
  %21 = getelementptr inbounds nuw %"class.cv::hfloat", ptr %2, i64 %13
  %22 = load i16, ptr %20, align 2, !tbaa !83
  store i16 %22, ptr %21, align 2, !tbaa !83
  %indvars.iv.next.i = add nuw nsw i64 %indvars.iv.i, 1
  %exitcond.not.i = icmp eq i64 %indvars.iv.next.i, %11
  br i1 %exitcond.not.i, label %._crit_edge.us.i, label %12, !llvm.loop !105

._crit_edge.us.i:                                 ; preds = %12
  %indvars.iv.next39.i = add nuw nsw i64 %indvars.iv38.i, %11
  %23 = trunc nuw i64 %indvars.iv.next39.i to i32
  %24 = icmp sgt i32 %8, %23
  br i1 %24, label %.preheader29.us.i, label %_ZN2cvL6LUT8u_INS_6hfloatEEEvPKhPKT_PS4_iii.exit, !llvm.loop !106

.preheader.i:                                     ; preds = %6
  br i1 %9, label %.lr.ph.preheader.i, label %_ZN2cvL6LUT8u_INS_6hfloatEEEvPKhPKT_PS4_iii.exit

.lr.ph.preheader.i:                               ; preds = %.preheader.i
  %wide.trip.count44.i = zext nneg i32 %8 to i64
  br label %.lr.ph.i

.lr.ph.i:                                         ; preds = %.lr.ph.i, %.lr.ph.preheader.i
  %indvars.iv41.i = phi i64 [ 0, %.lr.ph.preheader.i ], [ %indvars.iv.next42.i, %.lr.ph.i ]
  %25 = getelementptr inbounds nuw i8, ptr %0, i64 %indvars.iv41.i
  %26 = load i8, ptr %25, align 1, !tbaa !76
  %27 = zext i8 %26 to i64
  %28 = getelementptr inbounds nuw %"class.cv::hfloat", ptr %1, i64 %27
  %29 = getelementptr inbounds nuw %"class.cv::hfloat", ptr %2, i64 %indvars.iv41.i
  %30 = load i16, ptr %28, align 2, !tbaa !83
  store i16 %30, ptr %29, align 2, !tbaa !83
  %indvars.iv.next42.i = add nuw nsw i64 %indvars.iv41.i, 1
  %exitcond45.not.i = icmp eq i64 %indvars.iv.next42.i, %wide.trip.count44.i
  br i1 %exitcond45.not.i, label %_ZN2cvL6LUT8u_INS_6hfloatEEEvPKhPKT_PS4_iii.exit, label %.lr.ph.i, !llvm.loop !107

_ZN2cvL6LUT8u_INS_6hfloatEEEvPKhPKT_PS4_iii.exit: ; preds = %._crit_edge.us.i, %.lr.ph.i, %.preheader30.i, %.preheader.i
  ret void
}